; Function Attrs: mustprogress uwtable
define i32 @uloc_getDisplayCountry_77(ptr noundef %0, ptr noundef %1, ptr noundef %2, i32 noundef %3, ptr noundef %4) local_unnamed_addr #1 personality ptr @__gxx_personality_v0 {
  %6 = alloca i32, align 4
  %7 = alloca %"class.icu_77::CharString", align 8
  %8 = load i32, ptr %4, align 4, !tbaa !13
  %9 = icmp slt i32 %8, 1
  br i1 %9, label %10, label %_ZN12_GLOBAL__N_127_getDisplayNameForComponentEPKcS1_PDsiPFN6icu_7710CharStringESt17basic_string_viewIcSt11char_traitsIcEER10UErrorCodeES1_SA_.exit

10:                                               ; preds = %5
  call void @llvm.lifetime.start.p0(i64 4, ptr nonnull %6) #14
  %11 = icmp slt i32 %3, 0
  br i1 %11, label %15, label %12

12:                                               ; preds = %10
  %13 = icmp ne i32 %3, 0
  %14 = icmp eq ptr %2, null
  %or.cond.i = and i1 %14, %13
  br i1 %or.cond.i, label %15, label %16

15:                                               ; preds = %12, %10
  store i32 1, ptr %4, align 4, !tbaa !13
  br label %35

16:                                               ; preds = %12
  %17 = icmp eq ptr %0, null
  br i1 %17, label %18, label %20

18:                                               ; preds = %16
  %19 = tail call ptr @uloc_getDefault_77()
  br label %20

20:                                               ; preds = %18, %16
  %.024.i = phi ptr [ %19, %18 ], [ %0, %16 ]
  store i32 0, ptr %6, align 4, !tbaa !13
  call void @llvm.lifetime.start.p0(i64 64, ptr nonnull %7) #14
  %21 = tail call noundef i64 @strlen(ptr noundef nonnull dereferenceable(1) %.024.i) #14
  call void @_Z20ulocimp_getRegion_77St17basic_string_viewIcSt11char_traitsIcEER10UErrorCode(ptr dead_on_unwind nonnull writable sret(%"class.icu_77::CharString") align 8 %7, i64 %21, ptr nonnull %.024.i, ptr noundef nonnull align 4 dereferenceable(4) %6), !callees !19
  %22 = load i32, ptr %6, align 4, !tbaa !13
  %23 = icmp slt i32 %22, 1
  br i1 %23, label %25, label %24

24:                                               ; preds = %20
  store i32 1, ptr %4, align 4, !tbaa !13
  br label %34

25:                                               ; preds = %20
  %26 = getelementptr inbounds nuw i8, ptr %7, i64 56
  %27 = load i32, ptr %26, align 8, !tbaa !20
  %.not.i = icmp eq i32 %27, 0
  br i1 %.not.i, label %28, label %_ZN6icu_7710CharString6appendENS_11StringPieceER10UErrorCode.exit.i

28:                                               ; preds = %25
  %29 = invoke i32 @u_terminateUChars_77(ptr noundef %2, i32 noundef %3, i32 noundef 0, ptr noundef nonnull align 4 dereferenceable(4) %4)
          to label %34 unwind label %30

30:                                               ; preds = %_ZN6icu_7710CharString6appendENS_11StringPieceER10UErrorCode.exit.i, %28
  %31 = landingpad { ptr, i32 }
          cleanup
  call void @_ZN6icu_7715MaybeStackArrayIcLi40EED1Ev(ptr noundef nonnull align 8 dereferenceable(60) %7) #14
  call void @llvm.lifetime.end.p0(i64 64, ptr nonnull %7) #14
  call void @llvm.lifetime.end.p0(i64 4, ptr nonnull %6) #14
  resume { ptr, i32 } %31

_ZN6icu_7710CharString6appendENS_11StringPieceER10UErrorCode.exit.i: ; preds = %25
  %32 = load ptr, ptr %7, align 8, !tbaa !3
  %33 = invoke fastcc noundef i32 @_ZN12_GLOBAL__N_119_getStringOrCopyKeyEPKcS1_S1_S1_S1_S1_PDsiR10UErrorCode(ptr noundef nonnull @.str.3, ptr noundef %1, ptr noundef nonnull @_ZN12_GLOBAL__N_111_kCountriesE, ptr noundef null, ptr noundef %32, ptr noundef %32, ptr noundef %2, i32 noundef %3, ptr noundef nonnull align 4 dereferenceable(4) %4)
          to label %34 unwind label %30

34:                                               ; preds = %_ZN6icu_7710CharString6appendENS_11StringPieceER10UErrorCode.exit.i, %28, %24
  %.2.i = phi i32 [ 0, %24 ], [ %29, %28 ], [ %33, %_ZN6icu_7710CharString6appendENS_11StringPieceER10UErrorCode.exit.i ]
  call void @_ZN6icu_7715MaybeStackArrayIcLi40EED1Ev(ptr noundef nonnull align 8 dereferenceable(60) %7) #14
  call void @llvm.lifetime.end.p0(i64 64, ptr nonnull %7) #14
  br label %35

35:                                               ; preds = %34, %15
  %.1.i = phi i32 [ 0, %15 ], [ %.2.i, %34 ]
  call void @llvm.lifetime.end.p0(i64 4, ptr nonnull %6) #14
  br label %_ZN12_GLOBAL__N_127_getDisplayNameForComponentEPKcS1_PDsiPFN6icu_7710CharStringESt17basic_string_viewIcSt11char_traitsIcEER10UErrorCodeES1_SA_.exit

_ZN12_GLOBAL__N_127_getDisplayNameForComponentEPKcS1_PDsiPFN6icu_7710CharStringESt17basic_string_viewIcSt11char_traitsIcEER10UErrorCodeES1_SA_.exit: ; preds = %5, %35
  %.0.i = phi i32 [ %.1.i, %35 ], [ 0, %5 ]
  ret i32 %.0.i
}